Certificate:
    Data:
        Version: 3 (0x2)
        Serial Number:
            47:20:d0:fa:85:46:1a:7e:17:a1:64:02:91:84:63:74
    Signature Algorithm: sha384WithRSAEncryption
        Issuer: C=US, ST=New Jersey, L=Jersey City, O=The USERTRUST Network, CN=USERTrust RSA Certification Authority
        Validity
            Not Before: Oct  6 00:00:00 2014 GMT
            Not After : Oct  5 23:59:59 2024 GMT
        Subject: C=US, ST=MI, L=Ann Arbor, O=Internet2, OU=InCommon, CN=InCommon RSA Server CA
        Subject Public Key Info:
            Public Key Algorithm: rsaEncryption
                Public-Key: (2048 bit)
                Modulus:
                    00:9c:1b:f1:bb:2f:7f:63:18:15:51:51:54:0f:9e:
                    c5:4e:4d:10:58:fa:30:9b:17:29:90:e6:33:0c:ac:
                    13:53:7c:54:91:b4:ea:d8:6e:9b:89:6d:bb:33:3e:
                    8f:d2:0d:a6:e9:f9:ba:e9:0d:0c:1a:9e:b2:8e:c9:
                    70:2e:ef:1e:05:7d:95:eb:2d:8d:a2:a9:4d:b3:9c:
                    e7:f3:19:36:bb:a7:f1:7c:e6:08:1e:61:27:44:7a:
                    96:f4:a8:34:db:e2:42:c8:a5:db:37:d5:b5:e7:e4:
                    42:72:3f:b4:13:cf:8b:07:24:45:1e:8c:91:83:46:
                    b9:09:a6:fc:18:a3:06:02:ec:34:8d:32:66:95:27:
                    ea:e1:97:e8:db:35:a3:2b:56:eb:57:e8:f0:10:59:
                    df:6d:70:0c:66:6a:d0:64:e5:a8:a3:98:31:ad:1d:
                    62:d5:fa:92:e3:9a:43:cd:2d:35:fb:d9:9e:33:5b:
                    45:7d:c4:86:28:2c:66:12:c8:db:0f:19:30:0d:3f:
                    e9:f0:ea:4a:5e:40:07:c7:f6:20:7a:53:78:81:64:
                    7a:7e:45:6a:16:6f:f4:93:58:c9:62:fb:29:27:7d:
                    a1:7f:21:ce:e7:4f:47:d6:8a:56:e0:e3:66:f8:ec:
                    dd:89:dc:26:8c:19:68:3b:8d:8b:e2:fb:47:23:0b:
                    7f:37
                Exponent: 65537 (0x10001)
        X509v3 extensions:
            X509v3 Authority Key Identifier: 
                keyid:53:79:BF:5A:AA:2B:4A:CF:54:80:E1:D8:9B:C0:9D:F2:B2:03:66:CB

            X509v3 Subject Key Identifier: 
                1E:05:A3:77:8F:6C:96:E2:5B:87:4B:A6:B4:86:AC:71:00:0C:E7:38
            X509v3 Key Usage: critical
                Digital Signature, Certificate Sign, CRL Sign
            X509v3 Basic Constraints: critical
                CA:TRUE, pathlen:0
            X509v3 Extended Key Usage: 
                TLS Web Server Authentication, TLS Web Client Authentication
            X509v3 Certificate Policies: 
                Policy: X509v3 Any Policy
                Policy: 2.23.140.1.2.2

            X509v3 CRL Distribution Points: 

                Full Name:
                  URI:http://crl.usertrust.com/USERTrustRSACertificationAuthority.crl

            Authority Information Access: 
                CA Issuers - URI:http://crt.usertrust.com/USERTrustRSAAddTrustCA.crt
                OCSP - URI:http://ocsp.usertrust.com

    Signature Algorithm: sha384WithRSAEncryption
         2d:11:06:38:d6:db:d7:58:68:af:aa:38:67:17:8d:e2:13:d7:
         a3:14:24:d9:06:13:eb:eb:91:2f:df:4f:67:2d:c8:d3:14:d7:
         56:65:52:9e:6e:1f:98:08:8e:9a:48:1b:c1:8b:59:9a:a3:57:
         9b:db:86:f8:59:40:fc:19:b0:75:11:2a:c2:12:36:ba:8e:72:
         8a:06:4e:27:b7:8d:58:14:d1:6f:b4:f9:68:fc:98:dd:a4:9c:
         25:40:36:de:bd:17:66:2b:03:7f:78:81:b1:80:74:9e:5f:3a:
         b4:26:2f:6a:48:84:36:34:8e:a7:28:ef:87:f3:61:e7:db:67:
         f5:52:db:d7:d1:e6:30:71:bb:8b:a3:d4:ff:b9:64:89:9e:9b:
         81:9b:8f:57:b8:64:4c:d5:06:19:8e:e7:91:85:7c:18:d1:89:
         d8:f6:ea:1d:68:14:11:d9:ee:17:83:1f:50:63:cf:0e:f6:86:
         2a:6e:e3:b1:a4:c9:fa:f6:34:4c:77:2a:80:86:30:b0:a3:dc:
         1b:71:ec:04:a7:e4:98:bc:16:85:3e:84:26:b3:c0:e5:35:55:
         7e:79:98:a3:d4:d4:8d:b6:e7:42:e8:44:20:12:37:5f:09:c9:
         fb:03:e4:f5:65:74:96:ed:ca:b9:b3:f6:09:ff:4c:a6:d1:5d:
         3a:fc:d1:4d:aa:e4:98:72:be:38:4b:7f:89:4e:26:8f:d4:cc:
         be:56:09:71:03:4a:6c:a3:e2:35:86:dd:1e:d9:f1:31:03:f7:
         13:4d:0b:11:81:31:79:cc:7a:d7:be:dc:fb:f3:76:1b:2c:bd:
         b3:91:0f:00:59:07:2a:20:43:dc:4b:d8:b5:19:14:8f:e2:7a:
         84:29:d1:43:3f:2f:cc:df:3f:9d:bb:bd:68:c4:ce:e0:cd:e7:
         1c:31:32:78:62:fa:f0:93:a2:1e:c9:d7:9f:68:e5:a8:76:f6:
         63:fe:68:99:ef:ba:36:d7:12:71:9a:9e:b3:71:1f:3b:be:00:
         63:9e:3d:5f:21:c2:b1:86:1b:b8:4e:21:c3:c3:43:09:2e:63:
         0c:cd:ff:14:f6:f6:22:e9:fd:ca:9f:f5:98:44:b6:41:9c:41:
         c2:08:98:7d:db:a0:9f:22:7e:c0:a7:49:bb:b4:18:1f:4b:d3:
         a6:2a:87:b9:5c:ca:f2:83:4c:40:03:b2:52:1a:79:21:08:37:
         18:4e:d9:8d:5f:99:c6:05:5f:f1:6a:ae:ba:75:5a:78:47:3a:
         3a:65:5e:e5:c4:d0:e3:da:d2:eb:5a:28:2d:b9:02:99:60:a2:
         6f:3c:2f:66:7c:98:45:9c:c9:fa:01:ef:32:8e:7c:3e:f9:f4:
         03:7b:24:a6:56:09:8c:24
-----BEGIN CERTIFICATE-----
MIIF+TCCA+GgAwIBAgIQRyDQ+oVGGn4XoWQCkYRjdDANBgkqhkiG9w0BAQwFADCB
iDELMAkGA1UEBhMCVVMxEzARBgNVBAgTCk5ldyBKZXJzZXkxFDASBgNVBAcTC0pl
cnNleSBDaXR5MR4wHAYDVQQKExVUaGUgVVNFUlRSVVNUIE5ldHdvcmsxLjAsBgNV
BAMTJVVTRVJUcnVzdCBSU0EgQ2VydGlmaWNhdGlvbiBBdXRob3JpdHkwHhcNMTQx
MDA2MDAwMDAwWhcNMjQxMDA1MjM1OTU5WjB2MQswCQYDVQQGEwJVUzELMAkGA1UE
CBMCTUkxEjAQBgNVBAcTCUFubiBBcmJvcjESMBAGA1UEChMJSW50ZXJuZXQyMREw
DwYDVQQLEwhJbkNvbW1vbjEfMB0GA1UEAxMWSW5Db21tb24gUlNBIFNlcnZlciBD
QTCCASIwDQYJKoZIhvcNAQEBBQADggEPADCCAQoCggEBAJwb8bsvf2MYFVFRVA+e
xU5NEFj6MJsXKZDmMwysE1N8VJG06thum4ltuzM+j9INpun5uukNDBqeso7JcC7v
HgV9lestjaKpTbOc5/MZNrun8XzmCB5hJ0R6lvSoNNviQsil2zfVtefkQnI/tBPP
iwckRR6MkYNGuQmm/BijBgLsNI0yZpUn6uGX6Ns1oytW61fo8BBZ321wDGZq0GTl
qKOYMa0dYtX6kuOaQ80tNfvZnjNbRX3EhigsZhLI2w8ZMA0/6fDqSl5AB8f2IHpT
eIFken5FahZv9JNYyWL7KSd9oX8hzudPR9aKVuDjZvjs3YncJowZaDuNi+L7RyML
fzcCAwEAAaOCAW4wggFqMB8GA1UdIwQYMBaAFFN5v1qqK0rPVIDh2JvAnfKyA2bL
MB0GA1UdDgQWBBQeBaN3j2yW4luHS6a0hqxxAAznODAOBgNVHQ8BAf8EBAMCAYYw
EgYDVR0TAQH/BAgwBgEB/wIBADAdBgNVHSUEFjAUBggrBgEFBQcDAQYIKwYBBQUH
AwIwGwYDVR0gBBQwEjAGBgRVHSAAMAgGBmeBDAECAjBQBgNVHR8ESTBHMEWgQ6BB
hj9odHRwOi8vY3JsLnVzZXJ0cnVzdC5jb20vVVNFUlRydXN0UlNBQ2VydGlmaWNh
dGlvbkF1dGhvcml0eS5jcmwwdgYIKwYBBQUHAQEEajBoMD8GCCsGAQUFBzAChjNo
dHRwOi8vY3J0LnVzZXJ0cnVzdC5jb20vVVNFUlRydXN0UlNBQWRkVHJ1c3RDQS5j
cnQwJQYIKwYBBQUHMAGGGWh0dHA6Ly9vY3NwLnVzZXJ0cnVzdC5jb20wDQYJKoZI
hvcNAQEMBQADggIBAC0RBjjW29dYaK+qOGcXjeIT16MUJNkGE+vrkS/fT2ctyNMU
11ZlUp5uH5gIjppIG8GLWZqjV5vbhvhZQPwZsHURKsISNrqOcooGTie3jVgU0W+0
+Wj8mN2knCVANt69F2YrA394gbGAdJ5fOrQmL2pIhDY0jqco74fzYefbZ/VS29fR
5jBxu4uj1P+5ZImem4Gbj1e4ZEzVBhmO55GFfBjRidj26h1oFBHZ7heDH1Bjzw72
hipu47Gkyfr2NEx3KoCGMLCj3Btx7ASn5Ji8FoU+hCazwOU1VX55mKPU1I2250Lo
RCASN18JyfsD5PVldJbtyrmz9gn/TKbRXTr80U2q5JhyvjhLf4lOJo/UzL5WCXED
Smyj4jWG3R7Z8TED9xNNCxGBMXnMete+3PvzdhssvbORDwBZByogQ9xL2LUZFI/i
eoQp0UM/L8zfP527vWjEzuDN5xwxMnhi+vCToh7J159o5ah29mP+aJnvujbXEnGa
nrNxHzu+AGOePV8hwrGGG7hOIcPDQwkuYwzN/xT29iLp/cqf9ZhEtkGcQcIImH3b
oJ8ifsCnSbu0GB9L06Yqh7lcyvKDTEADslIaeSEINxhO2Y1fmcYFX/Fqrrp1WnhH
OjplXuXE0OPa0utaKC25Aplgom88L2Z8mEWcyfoB7zKOfD759AN7JKZWCYwk
-----END CERTIFICATE-----

Certificate:
    Data:
        Version: 3 (0x2)
        Serial Number: 1 (0x1)
        Signature Algorithm: sha1WithRSAEncryption
        Issuer: C = SE, O = AddTrust AB, OU = AddTrust External TTP Network, CN = AddTrust External CA Root
        Validity
            Not Before: May 30 10:48:38 2000 GMT
            Not After : May 30 10:48:38 2020 GMT
        Subject: C = SE, O = AddTrust AB, OU = AddTrust External TTP Network, CN = AddTrust External CA Root
        Subject Public Key Info:
            Public Key Algorithm: rsaEncryption
                RSA Public-Key: (2048 bit)
                Modulus:
                    00:b7:f7:1a:33:e6:f2:00:04:2d:39:e0:4e:5b:ed:
                    1f:bc:6c:0f:cd:b5:fa:23:b6:ce:de:9b:11:33:97:
                    a4:29:4c:7d:93:9f:bd:4a:bc:93:ed:03:1a:e3:8f:
                    cf:e5:6d:50:5a:d6:97:29:94:5a:80:b0:49:7a:db:
                    2e:95:fd:b8:ca:bf:37:38:2d:1e:3e:91:41:ad:70:
                    56:c7:f0:4f:3f:e8:32:9e:74:ca:c8:90:54:e9:c6:
                    5f:0f:78:9d:9a:40:3c:0e:ac:61:aa:5e:14:8f:9e:
                    87:a1:6a:50:dc:d7:9a:4e:af:05:b3:a6:71:94:9c:
                    71:b3:50:60:0a:c7:13:9d:38:07:86:02:a8:e9:a8:
                    69:26:18:90:ab:4c:b0:4f:23:ab:3a:4f:84:d8:df:
                    ce:9f:e1:69:6f:bb:d7:42:d7:6b:44:e4:c7:ad:ee:
                    6d:41:5f:72:5a:71:08:37:b3:79:65:a4:59:a0:94:
                    37:f7:00:2f:0d:c2:92:72:da:d0:38:72:db:14:a8:
                    45:c4:5d:2a:7d:b7:b4:d6:c4:ee:ac:cd:13:44:b7:
                    c9:2b:dd:43:00:25:fa:61:b9:69:6a:58:23:11:b7:
                    a7:33:8f:56:75:59:f5:cd:29:d7:46:b7:0a:2b:65:
                    b6:d3:42:6f:15:b2:b8:7b:fb:ef:e9:5d:53:d5:34:
                    5a:27
                Exponent: 65537 (0x10001)
        X509v3 extensions:
            X509v3 Subject Key Identifier: 
                AD:BD:98:7A:34:B4:26:F7:FA:C4:26:54:EF:03:BD:E0:24:CB:54:1A
            X509v3 Key Usage: 
                Certificate Sign, CRL Sign
            X509v3 Basic Constraints: critical
                CA:TRUE
            X509v3 Authority Key Identifier: 
                keyid:AD:BD:98:7A:34:B4:26:F7:FA:C4:26:54:EF:03:BD:E0:24:CB:54:1A
                DirName:/C=SE/O=AddTrust AB/OU=AddTrust External TTP Network/CN=AddTrust External CA Root
                serial:01

    Signature Algorithm: sha1WithRSAEncryption
         b0:9b:e0:85:25:c2:d6:23:e2:0f:96:06:92:9d:41:98:9c:d9:
         84:79:81:d9:1e:5b:14:07:23:36:65:8f:b0:d8:77:bb:ac:41:
         6c:47:60:83:51:b0:f9:32:3d:e7:fc:f6:26:13:c7:80:16:a5:
         bf:5a:fc:87:cf:78:79:89:21:9a:e2:4c:07:0a:86:35:bc:f2:
         de:51:c4:d2:96:b7:dc:7e:4e:ee:70:fd:1c:39:eb:0c:02:51:
         14:2d:8e:bd:16:e0:c1:df:46:75:e7:24:ad:ec:f4:42:b4:85:
         93:70:10:67:ba:9d:06:35:4a:18:d3:2b:7a:cc:51:42:a1:7a:
         63:d1:e6:bb:a1:c5:2b:c2:36:be:13:0d:e6:bd:63:7e:79:7b:
         a7:09:0d:40:ab:6a:dd:8f:8a:c3:f6:f6:8c:1a:42:05:51:d4:
         45:f5:9f:a7:62:21:68:15:20:43:3c:99:e7:7c:bd:24:d8:a9:
         91:17:73:88:3f:56:1b:31:38:18:b4:71:0f:9a:cd:c8:0e:9e:
         8e:2e:1b:e1:8c:98:83:cb:1f:31:f1:44:4c:c6:04:73:49:76:
         60:0f:c7:f8:bd:17:80:6b:2e:e9:cc:4c:0e:5a:9a:79:0f:20:
         0a:2e:d5:9e:63:26:1e:55:92:94:d8:82:17:5a:7b:d0:bc:c7:
         8f:4e:86:04
-----BEGIN CERTIFICATE-----
MIIENjCCAx6gAwIBAgIBATANBgkqhkiG9w0BAQUFADBvMQswCQYDVQQGEwJTRTEU
MBIGA1UEChMLQWRkVHJ1c3QgQUIxJjAkBgNVBAsTHUFkZFRydXN0IEV4dGVybmFs
IFRUUCBOZXR3b3JrMSIwIAYDVQQDExlBZGRUcnVzdCBFeHRlcm5hbCBDQSBSb290
MB4XDTAwMDUzMDEwNDgzOFoXDTIwMDUzMDEwNDgzOFowbzELMAkGA1UEBhMCU0Ux
FDASBgNVBAoTC0FkZFRydXN0IEFCMSYwJAYDVQQLEx1BZGRUcnVzdCBFeHRlcm5h
bCBUVFAgTmV0d29yazEiMCAGA1UEAxMZQWRkVHJ1c3QgRXh0ZXJuYWwgQ0EgUm9v
dDCCASIwDQYJKoZIhvcNAQEBBQADggEPADCCAQoCggEBALf3GjPm8gAELTngTlvt
H7xsD821+iO2zt6bETOXpClMfZOfvUq8k+0DGuOPz+VtUFrWlymUWoCwSXrbLpX9
uMq/NzgtHj6RQa1wVsfwTz/oMp50ysiQVOnGXw94nZpAPA6sYapeFI+eh6FqUNzX
mk6vBbOmcZSccbNQYArHE504B4YCqOmoaSYYkKtMsE8jqzpPhNjfzp/haW+710LX
a0Tkx63ubUFfclpxCDezeWWkWaCUN/cALw3CknLa0Dhy2xSoRcRdKn23tNbE7qzN
E0S3ySvdQwAl+mG5aWpYIxG3pzOPVnVZ9c0p10a3CitlttNCbxWyuHv77+ldU9U0
WicCAwEAAaOB3DCB2TAdBgNVHQ4EFgQUrb2YejS0Jvf6xCZU7wO94CTLVBowCwYD
VR0PBAQDAgEGMA8GA1UdEwEB/wQFMAMBAf8wgZkGA1UdIwSBkTCBjoAUrb2YejS0
Jvf6xCZU7wO94CTLVBqhc6RxMG8xCzAJBgNVBAYTAlNFMRQwEgYDVQQKEwtBZGRU
cnVzdCBBQjEmMCQGA1UECxMdQWRkVHJ1c3QgRXh0ZXJuYWwgVFRQIE5ldHdvcmsx
IjAgBgNVBAMTGUFkZFRydXN0IEV4dGVybmFsIENBIFJvb3SCAQEwDQYJKoZIhvcN
AQEFBQADggEBALCb4IUlwtYj4g+WBpKdQZic2YR5gdkeWxQHIzZlj7DYd7usQWxH
YINRsPkyPef89iYTx4AWpb9a/IfPeHmJIZriTAcKhjW88t5RxNKWt9x+Tu5w/Rw5
6wwCURQtjr0W4MHfRnXnJK3s9EK0hZNwEGe6nQY1ShjTK3rMUUKhemPR5ruhxSvC
Nr4TDea9Y355e6cJDUCrat2PisP29owaQgVR1EX1n6diIWgVIEM8med8vSTYqZEX
c4g/VhsxOBi0cQ+azcgOno4uG+GMmIPLHzHxREzGBHNJdmAPx/i9F4BrLunMTA5a
mnkPIAou1Z5jJh5VkpTYghdae9C8x49OhgQ=
-----END CERTIFICATE-----
Certificate:
    Data:
        Version: 3 (0x2)
        Serial Number:
            01:fd:6d:30:fc:a3:ca:51:a8:1b:bc:64:0e:35:03:2d
        Signature Algorithm: sha384WithRSAEncryption
        Issuer: C = US, ST = New Jersey, L = Jersey City, O = The USERTRUST Network, CN = USERTrust RSA Certification Authority
        Validity
            Not Before: Feb  1 00:00:00 2010 GMT
            Not After : Jan 18 23:59:59 2038 GMT
        Subject: C = US, ST = New Jersey, L = Jersey City, O = The USERTRUST Network, CN = USERTrust RSA Certification Authority
        Subject Public Key Info:
            Public Key Algorithm: rsaEncryption
                RSA Public-Key: (4096 bit)
                Modulus:
                    00:80:12:65:17:36:0e:c3:db:08:b3:d0:ac:57:0d:
                    76:ed:cd:27:d3:4c:ad:50:83:61:e2:aa:20:4d:09:
                    2d:64:09:dc:ce:89:9f:cc:3d:a9:ec:f6:cf:c1:dc:
                    f1:d3:b1:d6:7b:37:28:11:2b:47:da:39:c6:bc:3a:
                    19:b4:5f:a6:bd:7d:9d:a3:63:42:b6:76:f2:a9:3b:
                    2b:91:f8:e2:6f:d0:ec:16:20:90:09:3e:e2:e8:74:
                    c9:18:b4:91:d4:62:64:db:7f:a3:06:f1:88:18:6a:
                    90:22:3c:bc:fe:13:f0:87:14:7b:f6:e4:1f:8e:d4:
                    e4:51:c6:11:67:46:08:51:cb:86:14:54:3f:bc:33:
                    fe:7e:6c:9c:ff:16:9d:18:bd:51:8e:35:a6:a7:66:
                    c8:72:67:db:21:66:b1:d4:9b:78:03:c0:50:3a:e8:
                    cc:f0:dc:bc:9e:4c:fe:af:05:96:35:1f:57:5a:b7:
                    ff:ce:f9:3d:b7:2c:b6:f6:54:dd:c8:e7:12:3a:4d:
                    ae:4c:8a:b7:5c:9a:b4:b7:20:3d:ca:7f:22:34:ae:
                    7e:3b:68:66:01:44:e7:01:4e:46:53:9b:33:60:f7:
                    94:be:53:37:90:73:43:f3:32:c3:53:ef:db:aa:fe:
                    74:4e:69:c7:6b:8c:60:93:de:c4:c7:0c:df:e1:32:
                    ae:cc:93:3b:51:78:95:67:8b:ee:3d:56:fe:0c:d0:
                    69:0f:1b:0f:f3:25:26:6b:33:6d:f7:6e:47:fa:73:
                    43:e5:7e:0e:a5:66:b1:29:7c:32:84:63:55:89:c4:
                    0d:c1:93:54:30:19:13:ac:d3:7d:37:a7:eb:5d:3a:
                    6c:35:5c:db:41:d7:12:da:a9:49:0b:df:d8:80:8a:
                    09:93:62:8e:b5:66:cf:25:88:cd:84:b8:b1:3f:a4:
                    39:0f:d9:02:9e:eb:12:4c:95:7c:f3:6b:05:a9:5e:
                    16:83:cc:b8:67:e2:e8:13:9d:cc:5b:82:d3:4c:b3:
                    ed:5b:ff:de:e5:73:ac:23:3b:2d:00:bf:35:55:74:
                    09:49:d8:49:58:1a:7f:92:36:e6:51:92:0e:f3:26:
                    7d:1c:4d:17:bc:c9:ec:43:26:d0:bf:41:5f:40:a9:
                    44:44:f4:99:e7:57:87:9e:50:1f:57:54:a8:3e:fd:
                    74:63:2f:b1:50:65:09:e6:58:42:2e:43:1a:4c:b4:
                    f0:25:47:59:fa:04:1e:93:d4:26:46:4a:50:81:b2:
                    de:be:78:b7:fc:67:15:e1:c9:57:84:1e:0f:63:d6:
                    e9:62:ba:d6:5f:55:2e:ea:5c:c6:28:08:04:25:39:
                    b8:0e:2b:a9:f2:4c:97:1c:07:3f:0d:52:f5:ed:ef:
                    2f:82:0f
                Exponent: 65537 (0x10001)
        X509v3 extensions:
            X509v3 Subject Key Identifier: 
                53:79:BF:5A:AA:2B:4A:CF:54:80:E1:D8:9B:C0:9D:F2:B2:03:66:CB
            X509v3 Key Usage: critical
                Certificate Sign, CRL Sign
            X509v3 Basic Constraints: critical
                CA:TRUE
    Signature Algorithm: sha384WithRSAEncryption
         5c:d4:7c:0d:cf:f7:01:7d:41:99:65:0c:73:c5:52:9f:cb:f8:
         cf:99:06:7f:1b:da:43:15:9f:9e:02:55:57:96:14:f1:52:3c:
         27:87:94:28:ed:1f:3a:01:37:a2:76:fc:53:50:c0:84:9b:c6:
         6b:4e:ba:8c:21:4f:a2:8e:55:62:91:f3:69:15:d8:bc:88:e3:
         c4:aa:0b:fd:ef:a8:e9:4b:55:2a:06:20:6d:55:78:29:19:ee:
         5f:30:5c:4b:24:11:55:ff:24:9a:6e:5e:2a:2b:ee:0b:4d:9f:
         7f:f7:01:38:94:14:95:43:07:09:fb:60:a9:ee:1c:ab:12:8c:
         a0:9a:5e:a7:98:6a:59:6d:8b:3f:08:fb:c8:d1:45:af:18:15:
         64:90:12:0f:73:28:2e:c5:e2:24:4e:fc:58:ec:f0:f4:45:fe:
         22:b3:eb:2f:8e:d2:d9:45:61:05:c1:97:6f:a8:76:72:8f:8b:
         8c:36:af:bf:0d:05:ce:71:8d:e6:a6:6f:1f:6c:a6:71:62:c5:
         d8:d0:83:72:0c:f1:67:11:89:0c:9c:13:4c:72:34:df:bc:d5:
         71:df:aa:71:dd:e1:b9:6c:8c:3c:12:5d:65:da:bd:57:12:b6:
         43:6b:ff:e5:de:4d:66:11:51:cf:99:ae:ec:17:b6:e8:71:91:
         8c:de:49:fe:dd:35:71:a2:15:27:94:1c:cf:61:e3:26:bb:6f:
         a3:67:25:21:5d:e6:dd:1d:0b:2e:68:1b:3b:82:af:ec:83:67:
         85:d4:98:51:74:b1:b9:99:80:89:ff:7f:78:19:5c:79:4a:60:
         2e:92:40:ae:4c:37:2a:2c:c9:c7:62:c8:0e:5d:f7:36:5b:ca:
         e0:25:25:01:b4:dd:1a:07:9c:77:00:3f:d0:dc:d5:ec:3d:d4:
         fa:bb:3f:cc:85:d6:6f:7f:a9:2d:df:b9:02:f7:f5:97:9a:b5:
         35:da:c3:67:b0:87:4a:a9:28:9e:23:8e:ff:5c:27:6b:e1:b0:
         4f:f3:07:ee:00:2e:d4:59:87:cb:52:41:95:ea:f4:47:d7:ee:
         64:41:55:7c:8d:59:02:95:dd:62:9d:c2:b9:ee:5a:28:74:84:
         a5:9b:b7:90:c7:0c:07:df:f5:89:36:74:32:d6:28:c1:b0:b0:
         0b:e0:9c:4c:c3:1c:d6:fc:e3:69:b5:47:46:81:2f:a2:82:ab:
         d3:63:44:70:c4:8d:ff:2d:33:ba:ad:8f:7b:b5:70:88:ae:3e:
         19:cf:40:28:d8:fc:c8:90:bb:5d:99:22:f5:52:e6:58:c5:1f:
         88:31:43:ee:88:1d:d7:c6:8e:3c:43:6a:1d:a7:18:de:7d:3d:
         16:f1:62:f9:ca:90:a8:fd
-----BEGIN CERTIFICATE-----
MIIF3jCCA8agAwIBAgIQAf1tMPyjylGoG7xkDjUDLTANBgkqhkiG9w0BAQwFADCB
iDELMAkGA1UEBhMCVVMxEzARBgNVBAgTCk5ldyBKZXJzZXkxFDASBgNVBAcTC0pl
cnNleSBDaXR5MR4wHAYDVQQKExVUaGUgVVNFUlRSVVNUIE5ldHdvcmsxLjAsBgNV
BAMTJVVTRVJUcnVzdCBSU0EgQ2VydGlmaWNhdGlvbiBBdXRob3JpdHkwHhcNMTAw
MjAxMDAwMDAwWhcNMzgwMTE4MjM1OTU5WjCBiDELMAkGA1UEBhMCVVMxEzARBgNV
BAgTCk5ldyBKZXJzZXkxFDASBgNVBAcTC0plcnNleSBDaXR5MR4wHAYDVQQKExVU
aGUgVVNFUlRSVVNUIE5ldHdvcmsxLjAsBgNVBAMTJVVTRVJUcnVzdCBSU0EgQ2Vy
dGlmaWNhdGlvbiBBdXRob3JpdHkwggIiMA0GCSqGSIb3DQEBAQUAA4ICDwAwggIK
AoICAQCAEmUXNg7D2wiz0KxXDXbtzSfTTK1Qg2HiqiBNCS1kCdzOiZ/MPans9s/B
3PHTsdZ7NygRK0faOca8Ohm0X6a9fZ2jY0K2dvKpOyuR+OJv0OwWIJAJPuLodMkY
tJHUYmTbf6MG8YgYapAiPLz+E/CHFHv25B+O1ORRxhFnRghRy4YUVD+8M/5+bJz/
Fp0YvVGONaanZshyZ9shZrHUm3gDwFA66Mzw3LyeTP6vBZY1H1dat//O+T23LLb2
VN3I5xI6Ta5MirdcmrS3ID3KfyI0rn47aGYBROcBTkZTmzNg95S+UzeQc0PzMsNT
79uq/nROacdrjGCT3sTHDN/hMq7MkztReJVni+49Vv4M0GkPGw/zJSZrM233bkf6
c0Plfg6lZrEpfDKEY1WJxA3Bk1QwGROs0303p+tdOmw1XNtB1xLaqUkL39iAigmT
Yo61Zs8liM2EuLE/pDkP2QKe6xJMlXzzawWpXhaDzLhn4ugTncxbgtNMs+1b/97l
c6wjOy0AvzVVdAlJ2ElYGn+SNuZRkg7zJn0cTRe8yexDJtC/QV9AqURE9JnnV4ee
UB9XVKg+/XRjL7FQZQnmWEIuQxpMtPAlR1n6BB6T1CZGSlCBst6+eLf8ZxXhyVeE
Hg9j1uliutZfVS7qXMYoCAQlObgOK6nyTJccBz8NUvXt7y+CDwIDAQABo0IwQDAd
BgNVHQ4EFgQUU3m/WqorSs9UgOHYm8Cd8rIDZsswDgYDVR0PAQH/BAQDAgEGMA8G
A1UdEwEB/wQFMAMBAf8wDQYJKoZIhvcNAQEMBQADggIBAFzUfA3P9wF9QZllDHPF
Up/L+M+ZBn8b2kMVn54CVVeWFPFSPCeHlCjtHzoBN6J2/FNQwISbxmtOuowhT6KO
VWKR82kV2LyI48SqC/3vqOlLVSoGIG1VeCkZ7l8wXEskEVX/JJpuXior7gtNn3/3
ATiUFJVDBwn7YKnuHKsSjKCaXqeYalltiz8I+8jRRa8YFWSQEg9zKC7F4iRO/Fjs
8PRF/iKz6y+O0tlFYQXBl2+odnKPi4w2r78NBc5xjeambx9spnFixdjQg3IM8WcR
iQycE0xyNN+81XHfqnHd4blsjDwSXWXavVcStkNr/+XeTWYRUc+ZruwXtuhxkYze
Sf7dNXGiFSeUHM9h4ya7b6NnJSFd5t0dCy5oGzuCr+yDZ4XUmFF0sbmZgIn/f3gZ
XHlKYC6SQK5MNyosycdiyA5d9zZbyuAlJQG03RoHnHcAP9Dc1ew91Pq7P8yF1m9/
qS3fuQL39ZeatTXaw2ewh0qpKJ4jjv9cJ2vhsE/zB+4ALtRZh8tSQZXq9EfX7mRB
VXyNWQKV3WKdwrnuWih0hKWbt5DHDAff9Yk2dDLWKMGwsAvgnEzDHNb842m1R0aB
L6KCq9NjRHDEjf8tM7qtj3u1cIiuPhnPQCjY/MiQu12ZIvVS5ljFH4gxQ+6IHdfG
jjxDah2nGN59PRbxYvnKkKj9
-----END CERTIFICATE-----
